; ModuleID = 'bench/abc/original/satTrace.ll'
source_filename = "bench/abc/original/satTrace.ll"
target datalayout = "e-m:e-p270:32:32-p271:32:32-p272:64:64-i64:64-i128:128-f80:128-n8:16:32:64-S128"
target triple = "x86_64-pc-linux-gnu"

@.str = private unnamed_addr constant [2 x i8] c"w\00", align 1
@.str.1 = private unnamed_addr constant [42 x i8] c"                                        \0A\00", align 1
@.str.2 = private unnamed_addr constant [11 x i8] c"p %d %d %d\00", align 1
@.str.3 = private unnamed_addr constant [4 x i8] c" %d\00", align 1
@.str.4 = private unnamed_addr constant [4 x i8] c" 0\0A\00", align 1

; Function Attrs: nofree nounwind uwtable
define void @Sat_SolverTraceStart(ptr noundef writeonly captures(none) initializes((632, 648)) %0, ptr noundef readonly captures(none) %1) local_unnamed_addr #0 {
  %3 = tail call noalias ptr @fopen(ptr noundef %1, ptr noundef nonnull @.str)
  %4 = getelementptr inbounds nuw i8, ptr %0, i64 632
  store ptr %3, ptr %4, align 8, !tbaa !3
  %5 = tail call i64 @fwrite(ptr nonnull @.str.1, i64 41, i64 1, ptr %3)
  %6 = getelementptr inbounds nuw i8, ptr %0, i64 640
  store i32 0, ptr %6, align 8, !tbaa !22
  %7 = getelementptr inbounds nuw i8, ptr %0, i64 644
  store i32 0, ptr %7, align 4, !tbaa !23
  ret void
}

; Function Attrs: nofree nounwind
declare noalias noundef ptr @fopen(ptr noundef readonly captures(none), ptr noundef readonly captures(none)) local_unnamed_addr #1

; Function Attrs: nofree nounwind
declare noundef i32 @fprintf(ptr noundef captures(none), ptr noundef readonly captures(none), ...) local_unnamed_addr #1

; Function Attrs: nounwind uwtable
define void @Sat_SolverTraceStop(ptr noundef %0) local_unnamed_addr #2 {
  %2 = getelementptr inbounds nuw i8, ptr %0, i64 632
  %3 = load ptr, ptr %2, align 8, !tbaa !3
  %4 = icmp eq ptr %3, null
  br i1 %4, label %15, label %5

5:                                                ; preds = %1
  tail call void @rewind(ptr noundef nonnull %3)
  %6 = load ptr, ptr %2, align 8, !tbaa !3
  %7 = tail call i32 @sat_solver_nvars(ptr noundef nonnull %0) #5
  %8 = getelementptr inbounds nuw i8, ptr %0, i64 640
  %9 = load i32, ptr %8, align 8, !tbaa !22
  %10 = getelementptr inbounds nuw i8, ptr %0, i64 644
  %11 = load i32, ptr %10, align 4, !tbaa !23
  %12 = tail call i32 (ptr, ptr, ...) @fprintf(ptr noundef %6, ptr noundef nonnull @.str.2, i32 noundef %7, i32 noundef %9, i32 noundef %11) #5
  %13 = load ptr, ptr %2, align 8, !tbaa !3
  %14 = tail call i32 @fclose(ptr noundef %13)
  store ptr null, ptr %2, align 8, !tbaa !3
  br label %15

15:                                               ; preds = %1, %5
  ret void
}

; Function Attrs: nofree nounwind
declare void @rewind(ptr noundef captures(none)) local_unnamed_addr #1

declare i32 @sat_solver_nvars(ptr noundef) local_unnamed_addr #3

; Function Attrs: nofree nounwind
declare noundef i32 @fclose(ptr noundef captures(none)) local_unnamed_addr #1

; Function Attrs: nofree nounwind uwtable
define void @Sat_SolverTraceWrite(ptr noundef captures(none) %0, ptr noundef readonly %1, ptr noundef readnone %2, i32 noundef %3) local_unnamed_addr #0 {
  %5 = getelementptr inbounds nuw i8, ptr %0, i64 632
  %6 = load ptr, ptr %5, align 8, !tbaa !3
  %7 = icmp eq ptr %6, null
  br i1 %7, label %28, label %8

8:                                                ; preds = %4
  %9 = getelementptr inbounds nuw i8, ptr %0, i64 640
  %10 = load i32, ptr %9, align 8, !tbaa !22
  %11 = add nsw i32 %10, 1
  store i32 %11, ptr %9, align 8, !tbaa !22
  %12 = getelementptr inbounds nuw i8, ptr %0, i64 644
  %13 = load i32, ptr %12, align 4, !tbaa !23
  %14 = add nsw i32 %13, %3
  store i32 %14, ptr %12, align 4, !tbaa !23
  %15 = icmp ult ptr %1, %2
  br i1 %15, label %.lr.ph, label %._crit_edge

.lr.ph:                                           ; preds = %8, %.lr.ph
  %.09 = phi ptr [ %24, %.lr.ph ], [ %1, %8 ]
  %16 = load ptr, ptr %5, align 8, !tbaa !3
  %17 = load i32, ptr %.09, align 4, !tbaa !24
  %18 = and i32 %17, 1
  %.not.i = icmp eq i32 %18, 0
  %19 = ashr i32 %17, 1
  %20 = xor i32 %19, -1
  %21 = add nsw i32 %19, 1
  %22 = select i1 %.not.i, i32 %21, i32 %20
  %23 = tail call i32 (ptr, ptr, ...) @fprintf(ptr noundef %16, ptr noundef nonnull @.str.3, i32 noundef %22) #5
  %24 = getelementptr inbounds nuw i8, ptr %.09, i64 4
  %25 = icmp ult ptr %24, %2
  br i1 %25, label %.lr.ph, label %._crit_edge.loopexit, !llvm.loop !25

._crit_edge.loopexit:                             ; preds = %.lr.ph
  %.pre = load ptr, ptr %5, align 8, !tbaa !3
  br label %._crit_edge

._crit_edge:                                      ; preds = %._crit_edge.loopexit, %8
  %26 = phi ptr [ %.pre, %._crit_edge.loopexit ], [ %6, %8 ]
  %27 = tail call i64 @fwrite(ptr nonnull @.str.4, i64 3, i64 1, ptr %26)
  br label %28

28:                                               ; preds = %4, %._crit_edge
  ret void
}

; Function Attrs: nofree nounwind
declare noundef i64 @fwrite(ptr noundef captures(none), i64 noundef, i64 noundef, ptr noundef captures(none)) local_unnamed_addr #4


!llvm.module.flags = !{!0, !1, !2}

!0 = !{i32 1, !"wchar_size", i32 4}
!1 = !{i32 8, !"PIC Level", i32 2}
!2 = !{i32 7, !"uwtable", i32 2}
!3 = !{!4, !21, i64 632}
!4 = !{!"sat_solver_t", !5, i64 0, !5, i64 4, !5, i64 8, !5, i64 12, !8, i64 16, !5, i64 72, !5, i64 76, !11, i64 80, !12, i64 88, !5, i64 96, !5, i64 100, !5, i64 104, !5, i64 108, !5, i64 112, !13, i64 120, !13, i64 128, !13, i64 136, !14, i64 144, !14, i64 152, !5, i64 160, !5, i64 164, !15, i64 168, !17, i64 184, !5, i64 192, !16, i64 200, !17, i64 208, !17, i64 216, !17, i64 224, !17, i64 232, !16, i64 240, !16, i64 248, !16, i64 256, !15, i64 264, !15, i64 280, !15, i64 296, !15, i64 312, !16, i64 328, !15, i64 336, !5, i64 352, !5, i64 356, !5, i64 360, !18, i64 368, !18, i64 376, !5, i64 384, !5, i64 388, !5, i64 392, !19, i64 400, !5, i64 472, !5, i64 476, !5, i64 480, !5, i64 484, !5, i64 488, !13, i64 496, !13, i64 504, !13, i64 512, !15, i64 520, !20, i64 536, !5, i64 544, !5, i64 548, !5, i64 552, !15, i64 560, !15, i64 576, !5, i64 592, !5, i64 596, !5, i64 600, !16, i64 608, !10, i64 616, !5, i64 624, !21, i64 632, !5, i64 640, !5, i64 644, !15, i64 648, !15, i64 664, !15, i64 680, !10, i64 696, !10, i64 704, !5, i64 712, !10, i64 720}
!5 = !{!"int", !6, i64 0}
!6 = !{!"omnipotent char", !7, i64 0}
!7 = !{!"Simple C/C++ TBAA"}
!8 = !{!"Sat_Mem_t_", !6, i64 0, !6, i64 8, !6, i64 16, !6, i64 24, !5, i64 32, !5, i64 36, !5, i64 40, !5, i64 44, !9, i64 48}
!9 = !{!"p2 int", !10, i64 0}
!10 = !{!"any pointer", !6, i64 0}
!11 = !{!"p1 _ZTS8clause_t", !10, i64 0}
!12 = !{!"p1 _ZTS6veci_t", !10, i64 0}
!13 = !{!"long", !6, i64 0}
!14 = !{!"p1 long", !10, i64 0}
!15 = !{!"veci_t", !5, i64 0, !5, i64 4, !16, i64 8}
!16 = !{!"p1 int", !10, i64 0}
!17 = !{!"p1 omnipotent char", !10, i64 0}
!18 = !{!"double", !6, i64 0}
!19 = !{!"stats_t", !5, i64 0, !5, i64 4, !5, i64 8, !13, i64 16, !13, i64 24, !13, i64 32, !13, i64 40, !13, i64 48, !13, i64 56, !13, i64 64}
!20 = !{!"p1 double", !10, i64 0}
!21 = !{!"p1 _ZTS8_IO_FILE", !10, i64 0}
!22 = !{!4, !5, i64 640}
!23 = !{!4, !5, i64 644}
!24 = !{!5, !5, i64 0}
!25 = distinct !{!25, !26}
!26 = !{!"llvm.loop.mustprogress"}
